MPLINK 5.08, LINKER
Linker Map File - Created Wed Apr 26 10:37:36 2017

                                 Section Info
                  Section       Type    Address   Location Size(Bytes)
                ---------  ---------  ---------  ---------  ---------
                   .org_0       code   0x000000    program   0x000002
                   .cinit    romdata   0x000001    program   0x000004
                   .org_1       code   0x000004    program   0x000b30
.config_2007_BUILD/DEFAULT/PRODUCTION/_EXT/12       code   0x002007    program   0x000002
.config_2008_BUILD/DEFAULT/PRODUCTION/_EXT/12       code   0x002008    program   0x000002



                              Program Memory Usage 
                               Start         End      
                           ---------   ---------      
                            0x000000    0x000002      
                            0x000004    0x00059b      
                            0x002007    0x002008      
            1437 out of 8455 program addresses used, program memory utilization is 16%



                              Symbols - Sorted by Name
                     Name    Address   Location    Storage File                     
                ---------  ---------  ---------  --------- ---------                
                       AA   0x0002e8    program     static D:\MICROC\lab3\CAJEROAUTO\CAJERO.X\OPCION.inc
                       AS   0x0003e8    program     static D:\MICROC\lab3\CAJEROAUTO\CAJERO.X\RETIRO.inc
                BCD_ALTO1   0x0004b0    program     static D:\MICROC\lab3\CAJEROAUTO\CAJERO.X\SALDO.inc
                BCD_BAJO1   0x0004bb    program     static D:\MICROC\lab3\CAJEROAUTO\CAJERO.X\SALDO.inc
              BIENVENIDOS   0x0001c2    program     static D:\MICROC\lab3\CAJEROAUTO\CAJERO.X\BIENVENIDOS.inc
                  BLOQUEO   0x0002b9    program     static D:\MICROC\lab3\CAJEROAUTO\CAJERO.X\REVISAR_CLAVE.inc
                    BOR_1   0x0001f0    program     static D:\MICROC\lab3\CAJEROAUTO\CAJERO.X\CLAVE.inc
                   BOR_1C   0x000338    program     static D:\MICROC\lab3\CAJEROAUTO\CAJERO.X\CAMBIAR_CLAVE.inc
                    BOR_2   0x0001ff    program     static D:\MICROC\lab3\CAJEROAUTO\CAJERO.X\CLAVE.inc
                   BOR_2C   0x000347    program     static D:\MICROC\lab3\CAJEROAUTO\CAJERO.X\CAMBIAR_CLAVE.inc
                    BOR_3   0x00021a    program     static D:\MICROC\lab3\CAJEROAUTO\CAJERO.X\CLAVE.inc
                   BOR_3C   0x000362    program     static D:\MICROC\lab3\CAJEROAUTO\CAJERO.X\CAMBIAR_CLAVE.inc
                    BOR_4   0x000235    program     static D:\MICROC\lab3\CAJEROAUTO\CAJERO.X\CLAVE.inc
                   BOR_4C   0x00037d    program     static D:\MICROC\lab3\CAJEROAUTO\CAJERO.X\CAMBIAR_CLAVE.inc
                    BOR_5   0x000250    program     static D:\MICROC\lab3\CAJEROAUTO\CAJERO.X\CLAVE.inc
                   BOR_5C   0x000398    program     static D:\MICROC\lab3\CAJEROAUTO\CAJERO.X\CAMBIAR_CLAVE.inc
            CAMBIAR_CLAVE   0x00031d    program     static D:\MICROC\lab3\CAJEROAUTO\CAJERO.X\CAMBIAR_CLAVE.inc
                 CINCOMIL   0x000422    program     static D:\MICROC\lab3\CAJEROAUTO\CAJERO.X\RETIRO.inc
                    CLAVE   0x0001ce    program     static D:\MICROC\lab3\CAJEROAUTO\CAJERO.X\CLAVE.inc
                  COMAND8   0x0001b8    program     static D:\MICROC\lab3\CAJEROAUTO\CAJERO.X\INI_LCD.inc
            CONFIGURACION   0x000181    program     static D:\MICROC\lab3\CAJEROAUTO\CAJERO.X\CONFIGURACION.inc
            CONVERSOR_BCD   0x0004ab    program     static D:\MICROC\lab3\CAJEROAUTO\CAJERO.X\SALDO.inc
                    DATO8   0x0001ba    program     static D:\MICROC\lab3\CAJEROAUTO\CAJERO.X\INI_LCD.inc
                  DIEZMIL   0x000428    program     static D:\MICROC\lab3\CAJEROAUTO\CAJERO.X\RETIRO.inc
                  DIGITO0   0x00026d    program     static D:\MICROC\lab3\CAJEROAUTO\CAJERO.X\REVISAR_CLAVE.inc
                  DIGITO1   0x000271    program     static D:\MICROC\lab3\CAJEROAUTO\CAJERO.X\REVISAR_CLAVE.inc
                  DIGITO2   0x000275    program     static D:\MICROC\lab3\CAJEROAUTO\CAJERO.X\REVISAR_CLAVE.inc
                  DIGITO3   0x000279    program     static D:\MICROC\lab3\CAJEROAUTO\CAJERO.X\REVISAR_CLAVE.inc
                      DOS   0x000593    program     static D:\MICROC\lab3\CAJEROAUTO\CAJERO.X\Retardos.inc
                      FAB   0x0003f8    program     static D:\MICROC\lab3\CAJEROAUTO\CAJERO.X\RETIRO.inc
                       HH   0x000528    program     static D:\MICROC\lab3\CAJEROAUTO\CAJERO.X\SALDO.inc
                   INICIO   0x000100    program     static D:\MICROC\lab3\CAJEROAUTO\CAJERO.X\CAJERO.asm
                  INI_LCD   0x0001a9    program     static D:\MICROC\lab3\CAJEROAUTO\CAJERO.X\INI_LCD.inc
             INTERRUPCION   0x000111    program     static D:\MICROC\lab3\CAJEROAUTO\CAJERO.X\CAJERO.asm
                       JJ   0x00052a    program     static D:\MICROC\lab3\CAJEROAUTO\CAJERO.X\SALDO.inc
                     LIN1   0x000005    program     static D:\MICROC\lab3\CAJEROAUTO\CAJERO.X\CAJERO.asm
                    LIN10   0x000099    program     static D:\MICROC\lab3\CAJEROAUTO\CAJERO.X\CAJERO.asm
                    LIN11   0x0000aa    program     static D:\MICROC\lab3\CAJEROAUTO\CAJERO.X\CAJERO.asm
                    LIN12   0x0000bb    program     static D:\MICROC\lab3\CAJEROAUTO\CAJERO.X\CAJERO.asm
                    LIN13   0x0000cc    program     static D:\MICROC\lab3\CAJEROAUTO\CAJERO.X\CAJERO.asm
                    LIN14   0x0000dd    program     static D:\MICROC\lab3\CAJEROAUTO\CAJERO.X\CAJERO.asm
                    LIN15   0x0000ee    program     static D:\MICROC\lab3\CAJEROAUTO\CAJERO.X\CAJERO.asm
                     LIN2   0x000016    program     static D:\MICROC\lab3\CAJEROAUTO\CAJERO.X\CAJERO.asm
                     LIN3   0x000027    program     static D:\MICROC\lab3\CAJEROAUTO\CAJERO.X\CAJERO.asm
                     LIN4   0x000038    program     static D:\MICROC\lab3\CAJEROAUTO\CAJERO.X\CAJERO.asm
                     LIN5   0x000044    program     static D:\MICROC\lab3\CAJEROAUTO\CAJERO.X\CAJERO.asm
                     LIN6   0x000055    program     static D:\MICROC\lab3\CAJEROAUTO\CAJERO.X\CAJERO.asm
                     LIN7   0x000066    program     static D:\MICROC\lab3\CAJEROAUTO\CAJERO.X\CAJERO.asm
                     LIN8   0x000077    program     static D:\MICROC\lab3\CAJEROAUTO\CAJERO.X\CAJERO.asm
                     LIN9   0x000088    program     static D:\MICROC\lab3\CAJEROAUTO\CAJERO.X\CAJERO.asm
                   LINEA1   0x0001c6    program     static D:\MICROC\lab3\CAJEROAUTO\CAJERO.X\BIENVENIDOS.inc
                  LINEA11   0x000321    program     static D:\MICROC\lab3\CAJEROAUTO\CAJERO.X\CAMBIAR_CLAVE.inc
                  LINEA12   0x00032e    program     static D:\MICROC\lab3\CAJEROAUTO\CAJERO.X\CAMBIAR_CLAVE.inc
                  LINEA13   0x0003b2    program     static D:\MICROC\lab3\CAJEROAUTO\CAJERO.X\CAMBIAR_CLAVE.inc
                 LINEA13S   0x000447    program     static D:\MICROC\lab3\CAJEROAUTO\CAJERO.X\RETIRO.inc
                  LINEA14   0x0003d1    program     static D:\MICROC\lab3\CAJEROAUTO\CAJERO.X\RETIRO.inc
                  LINEA15   0x0003de    program     static D:\MICROC\lab3\CAJEROAUTO\CAJERO.X\RETIRO.inc
                   LINEA2   0x0001d2    program     static D:\MICROC\lab3\CAJEROAUTO\CAJERO.X\CLAVE.inc
                   LINEA3   0x0001df    program     static D:\MICROC\lab3\CAJEROAUTO\CAJERO.X\CLAVE.inc
                   LINEA5   0x000281    program     static D:\MICROC\lab3\CAJEROAUTO\CAJERO.X\REVISAR_CLAVE.inc
                   LINEA6   0x0002aa    program     static D:\MICROC\lab3\CAJEROAUTO\CAJERO.X\REVISAR_CLAVE.inc
                   LINEA7   0x0002bd    program     static D:\MICROC\lab3\CAJEROAUTO\CAJERO.X\REVISAR_CLAVE.inc
                   LINEA8   0x0002d0    program     static D:\MICROC\lab3\CAJEROAUTO\CAJERO.X\OPCION.inc
                   LINEA9   0x0002dd    program     static D:\MICROC\lab3\CAJEROAUTO\CAJERO.X\OPCION.inc
                  LINEAS5   0x000295    program     static D:\MICROC\lab3\CAJEROAUTO\CAJERO.X\REVISAR_CLAVE.inc
                     LOOP   0x000104    program     static D:\MICROC\lab3\CAJEROAUTO\CAJERO.X\CAJERO.asm
                   LOOP11   0x000584    program     static D:\MICROC\lab3\CAJEROAUTO\CAJERO.X\Retardos.inc
                   LOOP22   0x000586    program     static D:\MICROC\lab3\CAJEROAUTO\CAJERO.X\Retardos.inc
                   LOOP33   0x000588    program     static D:\MICROC\lab3\CAJEROAUTO\CAJERO.X\Retardos.inc
                      MAL   0x00028a    program     static D:\MICROC\lab3\CAJEROAUTO\CAJERO.X\REVISAR_CLAVE.inc
        MENSAJES_CENTENAS   0x0004d4    program     static D:\MICROC\lab3\CAJEROAUTO\CAJERO.X\SALDO.inc
                   OPCION   0x0002cc    program     static D:\MICROC\lab3\CAJEROAUTO\CAJERO.X\OPCION.inc
                      POP   0x000125    program     static D:\MICROC\lab3\CAJEROAUTO\CAJERO.X\CAJERO.asm
                       PP   0x0003ba    program     static D:\MICROC\lab3\CAJEROAUTO\CAJERO.X\CAMBIAR_CLAVE.inc
                      PPP   0x00044f    program     static D:\MICROC\lab3\CAJEROAUTO\CAJERO.X\RETIRO.inc
                     PPPP   0x00049c    program     static D:\MICROC\lab3\CAJEROAUTO\CAJERO.X\RETIRO.inc
                     PUSH   0x000121    program     static D:\MICROC\lab3\CAJEROAUTO\CAJERO.X\CAJERO.asm
                QUINCEMIL   0x000431    program     static D:\MICROC\lab3\CAJEROAUTO\CAJERO.X\RETIRO.inc
    R1Decima_BucleExterno   0x000578    program     static D:\MICROC\lab3\CAJEROAUTO\CAJERO.X\Retardos.inc
   R1Decima_BucleExterno2   0x000576    program     static D:\MICROC\lab3\CAJEROAUTO\CAJERO.X\Retardos.inc
    R1Decima_BucleInterno   0x00057a    program     static D:\MICROC\lab3\CAJEROAUTO\CAJERO.X\Retardos.inc
        R1ms_BucleExterno   0x000562    program     static D:\MICROC\lab3\CAJEROAUTO\CAJERO.X\Retardos.inc
        R1ms_BucleInterno   0x000564    program     static D:\MICROC\lab3\CAJEROAUTO\CAJERO.X\Retardos.inc
                     REP1   0x0001f2    program     static D:\MICROC\lab3\CAJEROAUTO\CAJERO.X\CLAVE.inc
                    REP1C   0x00033a    program     static D:\MICROC\lab3\CAJEROAUTO\CAJERO.X\CAMBIAR_CLAVE.inc
                     REP2   0x000201    program     static D:\MICROC\lab3\CAJEROAUTO\CAJERO.X\CLAVE.inc
                    REP2C   0x000349    program     static D:\MICROC\lab3\CAJEROAUTO\CAJERO.X\CAMBIAR_CLAVE.inc
                     REP3   0x00021c    program     static D:\MICROC\lab3\CAJEROAUTO\CAJERO.X\CLAVE.inc
                    REP3C   0x000364    program     static D:\MICROC\lab3\CAJEROAUTO\CAJERO.X\CAMBIAR_CLAVE.inc
                     REP4   0x000237    program     static D:\MICROC\lab3\CAJEROAUTO\CAJERO.X\CLAVE.inc
                    REP4C   0x00037f    program     static D:\MICROC\lab3\CAJEROAUTO\CAJERO.X\CAMBIAR_CLAVE.inc
                     REP5   0x000252    program     static D:\MICROC\lab3\CAJEROAUTO\CAJERO.X\CLAVE.inc
                    REP5C   0x00039a    program     static D:\MICROC\lab3\CAJEROAUTO\CAJERO.X\CAMBIAR_CLAVE.inc
                     REPE   0x0002b3    program     static D:\MICROC\lab3\CAJEROAUTO\CAJERO.X\REVISAR_CLAVE.inc
                  RETARDO   0x00058f    program     static D:\MICROC\lab3\CAJEROAUTO\CAJERO.X\Retardos.inc
                   RETIRO   0x0003cd    program     static D:\MICROC\lab3\CAJEROAUTO\CAJERO.X\RETIRO.inc
                 RET_10MS   0x000582    program     static D:\MICROC\lab3\CAJEROAUTO\CAJERO.X\Retardos.inc
            REVISAR_CLAVE   0x00026b    program     static D:\MICROC\lab3\CAJEROAUTO\CAJERO.X\REVISAR_CLAVE.inc
            RetardoMicros   0x00054e    program     static D:\MICROC\lab3\CAJEROAUTO\CAJERO.X\Retardos.inc
        Retardo_100micros   0x000548    program     static D:\MICROC\lab3\CAJEROAUTO\CAJERO.X\Retardos.inc
            Retardo_100ms   0x000554    program     static D:\MICROC\lab3\CAJEROAUTO\CAJERO.X\Retardos.inc
         Retardo_10micros   0x00053b    program     static D:\MICROC\lab3\CAJEROAUTO\CAJERO.X\Retardos.inc
             Retardo_10ms   0x00055a    program     static D:\MICROC\lab3\CAJEROAUTO\CAJERO.X\Retardos.inc
              Retardo_10s   0x00056c    program     static D:\MICROC\lab3\CAJEROAUTO\CAJERO.X\Retardos.inc
          Retardo_1Decima   0x000575    program     static D:\MICROC\lab3\CAJEROAUTO\CAJERO.X\Retardos.inc
              Retardo_1ms   0x000560    program     static D:\MICROC\lab3\CAJEROAUTO\CAJERO.X\Retardos.inc
               Retardo_1s   0x000572    program     static D:\MICROC\lab3\CAJEROAUTO\CAJERO.X\Retardos.inc
        Retardo_200micros   0x000545    program     static D:\MICROC\lab3\CAJEROAUTO\CAJERO.X\Retardos.inc
            Retardo_200ms   0x000552    program     static D:\MICROC\lab3\CAJEROAUTO\CAJERO.X\Retardos.inc
         Retardo_20micros   0x00054d    program     static D:\MICROC\lab3\CAJEROAUTO\CAJERO.X\Retardos.inc
             Retardo_20ms   0x000558    program     static D:\MICROC\lab3\CAJEROAUTO\CAJERO.X\Retardos.inc
              Retardo_20s   0x00056a    program     static D:\MICROC\lab3\CAJEROAUTO\CAJERO.X\Retardos.inc
              Retardo_2ms   0x00055e    program     static D:\MICROC\lab3\CAJEROAUTO\CAJERO.X\Retardos.inc
               Retardo_2s   0x000570    program     static D:\MICROC\lab3\CAJEROAUTO\CAJERO.X\Retardos.inc
          Retardo_4micros   0x000541    program     static D:\MICROC\lab3\CAJEROAUTO\CAJERO.X\Retardos.inc
        Retardo_500micros   0x000542    program     static D:\MICROC\lab3\CAJEROAUTO\CAJERO.X\Retardos.inc
            Retardo_500ms   0x000574    program     static D:\MICROC\lab3\CAJEROAUTO\CAJERO.X\Retardos.inc
         Retardo_50micros   0x00054a    program     static D:\MICROC\lab3\CAJEROAUTO\CAJERO.X\Retardos.inc
             Retardo_50ms   0x000556    program     static D:\MICROC\lab3\CAJEROAUTO\CAJERO.X\Retardos.inc
          Retardo_5micros   0x000540    program     static D:\MICROC\lab3\CAJEROAUTO\CAJERO.X\Retardos.inc
              Retardo_5ms   0x00055c    program     static D:\MICROC\lab3\CAJEROAUTO\CAJERO.X\Retardos.inc
               Retardo_5s   0x00056e    program     static D:\MICROC\lab3\CAJEROAUTO\CAJERO.X\Retardos.inc
              Retardos_ms   0x000561    program     static D:\MICROC\lab3\CAJEROAUTO\CAJERO.X\Retardos.inc
            Rmicros_Bucle   0x00054f    program     static D:\MICROC\lab3\CAJEROAUTO\CAJERO.X\Retardos.inc
                    SALDO   0x0004ab    program     static D:\MICROC\lab3\CAJEROAUTO\CAJERO.X\SALDO.inc
       SALDO_INSUFICIENTE   0x000506    program     static D:\MICROC\lab3\CAJEROAUTO\CAJERO.X\SALDO.inc
                   SALIRA   0x000262    program     static D:\MICROC\lab3\CAJEROAUTO\CAJERO.X\CLAVE.inc
                  SALIRAC   0x0003aa    program     static D:\MICROC\lab3\CAJEROAUTO\CAJERO.X\CAMBIAR_CLAVE.inc
                 SINSALDO   0x00045e    program     static D:\MICROC\lab3\CAJEROAUTO\CAJERO.X\RETIRO.inc
                    START   0x0000ff    program     static D:\MICROC\lab3\CAJEROAUTO\CAJERO.X\CAJERO.asm
               SUMA_CIEN1   0x0004b7    program     static D:\MICROC\lab3\CAJEROAUTO\CAJERO.X\SALDO.inc
               SUMA_DIEZ1   0x0004c2    program     static D:\MICROC\lab3\CAJEROAUTO\CAJERO.X\SALDO.inc
                   TECLA2   0x000211    program     static D:\MICROC\lab3\CAJEROAUTO\CAJERO.X\CLAVE.inc
                  TECLA2C   0x000359    program     static D:\MICROC\lab3\CAJEROAUTO\CAJERO.X\CAMBIAR_CLAVE.inc
                  TECLADO   0x000129    program     static D:\MICROC\lab3\CAJEROAUTO\CAJERO.X\CAJERO.asm
                  TECLA_3   0x00022c    program     static D:\MICROC\lab3\CAJEROAUTO\CAJERO.X\CLAVE.inc
                 TECLA_3C   0x000374    program     static D:\MICROC\lab3\CAJEROAUTO\CAJERO.X\CAMBIAR_CLAVE.inc
                  TECLA_4   0x000247    program     static D:\MICROC\lab3\CAJEROAUTO\CAJERO.X\CLAVE.inc
                 TECLA_4C   0x00038f    program     static D:\MICROC\lab3\CAJEROAUTO\CAJERO.X\CAMBIAR_CLAVE.inc
                   TRANSA   0x000443    program     static D:\MICROC\lab3\CAJEROAUTO\CAJERO.X\RETIRO.inc
                     TRES   0x000591    program     static D:\MICROC\lab3\CAJEROAUTO\CAJERO.X\Retardos.inc
                       UN   0x00011c    program     static D:\MICROC\lab3\CAJEROAUTO\CAJERO.X\CAJERO.asm
                      UNO   0x000595    program     static D:\MICROC\lab3\CAJEROAUTO\CAJERO.X\Retardos.inc
                VEINTEMIL   0x00043a    program     static D:\MICROC\lab3\CAJEROAUTO\CAJERO.X\RETIRO.inc
                   VUELVE   0x0002cc    program     static D:\MICROC\lab3\CAJEROAUTO\CAJERO.X\OPCION.inc
                      XXX   0x0002f8    program     static D:\MICROC\lab3\CAJEROAUTO\CAJERO.X\OPCION.inc
                       ZZ   0x0003bc    program     static D:\MICROC\lab3\CAJEROAUTO\CAJERO.X\CAMBIAR_CLAVE.inc
                      ZZZ   0x000451    program     static D:\MICROC\lab3\CAJEROAUTO\CAJERO.X\RETIRO.inc
                     ZZZZ   0x00049e    program     static D:\MICROC\lab3\CAJEROAUTO\CAJERO.X\RETIRO.inc
             _.org_1_010F   0x00010f    program     static D:\MICROC\lab3\CAJEROAUTO\CAJERO.X\CAJERO.asm
             _.org_1_012C   0x00012c    program     static D:\MICROC\lab3\CAJEROAUTO\CAJERO.X\CAJERO.asm
             _.org_1_0131   0x000131    program     static D:\MICROC\lab3\CAJEROAUTO\CAJERO.X\CAJERO.asm
             _.org_1_0136   0x000136    program     static D:\MICROC\lab3\CAJEROAUTO\CAJERO.X\CAJERO.asm
             _.org_1_013B   0x00013b    program     static D:\MICROC\lab3\CAJEROAUTO\CAJERO.X\CAJERO.asm
             _.org_1_0142   0x000142    program     static D:\MICROC\lab3\CAJEROAUTO\CAJERO.X\CAJERO.asm
             _.org_1_0147   0x000147    program     static D:\MICROC\lab3\CAJEROAUTO\CAJERO.X\CAJERO.asm
             _.org_1_014C   0x00014c    program     static D:\MICROC\lab3\CAJEROAUTO\CAJERO.X\CAJERO.asm
             _.org_1_0151   0x000151    program     static D:\MICROC\lab3\CAJEROAUTO\CAJERO.X\CAJERO.asm
             _.org_1_0158   0x000158    program     static D:\MICROC\lab3\CAJEROAUTO\CAJERO.X\CAJERO.asm
             _.org_1_015D   0x00015d    program     static D:\MICROC\lab3\CAJEROAUTO\CAJERO.X\CAJERO.asm
             _.org_1_0162   0x000162    program     static D:\MICROC\lab3\CAJEROAUTO\CAJERO.X\CAJERO.asm
             _.org_1_0167   0x000167    program     static D:\MICROC\lab3\CAJEROAUTO\CAJERO.X\CAJERO.asm
             _.org_1_016E   0x00016e    program     static D:\MICROC\lab3\CAJEROAUTO\CAJERO.X\CAJERO.asm
             _.org_1_0173   0x000173    program     static D:\MICROC\lab3\CAJEROAUTO\CAJERO.X\CAJERO.asm
             _.org_1_0178   0x000178    program     static D:\MICROC\lab3\CAJEROAUTO\CAJERO.X\CAJERO.asm
             _.org_1_017D   0x00017d    program     static D:\MICROC\lab3\CAJEROAUTO\CAJERO.X\CAJERO.asm
             _.org_1_01B9   0x0001b9    program     static D:\MICROC\lab3\CAJEROAUTO\CAJERO.X\INI_LCD.inc
             _.org_1_02CA   0x0002ca    program     static D:\MICROC\lab3\CAJEROAUTO\CAJERO.X\REVISAR_CLAVE.inc
             _.org_1_02ED   0x0002ed    program     static D:\MICROC\lab3\CAJEROAUTO\CAJERO.X\OPCION.inc
             _.org_1_02FD   0x0002fd    program     static D:\MICROC\lab3\CAJEROAUTO\CAJERO.X\OPCION.inc
             _.org_1_0311   0x000311    program     static D:\MICROC\lab3\CAJEROAUTO\CAJERO.X\OPCION.inc
             _.org_1_0316   0x000316    program     static D:\MICROC\lab3\CAJEROAUTO\CAJERO.X\OPCION.inc
             _.org_1_03ED   0x0003ed    program     static D:\MICROC\lab3\CAJEROAUTO\CAJERO.X\RETIRO.inc
             _.org_1_03FD   0x0003fd    program     static D:\MICROC\lab3\CAJEROAUTO\CAJERO.X\RETIRO.inc
             _.org_1_0411   0x000411    program     static D:\MICROC\lab3\CAJEROAUTO\CAJERO.X\RETIRO.inc
             _.org_1_0416   0x000416    program     static D:\MICROC\lab3\CAJEROAUTO\CAJERO.X\RETIRO.inc
             _.org_1_041B   0x00041b    program     static D:\MICROC\lab3\CAJEROAUTO\CAJERO.X\RETIRO.inc
             _.org_1_04C8   0x0004c8    program     static D:\MICROC\lab3\CAJEROAUTO\CAJERO.X\SALDO.inc
             _.org_1_04CD   0x0004cd    program     static D:\MICROC\lab3\CAJEROAUTO\CAJERO.X\SALDO.inc



                              Symbols - Sorted by Address
                     Name    Address   Location    Storage File                     
                ---------  ---------  ---------  --------- ---------                
                     LIN1   0x000005    program     static D:\MICROC\lab3\CAJEROAUTO\CAJERO.X\CAJERO.asm
                     LIN2   0x000016    program     static D:\MICROC\lab3\CAJEROAUTO\CAJERO.X\CAJERO.asm
                     LIN3   0x000027    program     static D:\MICROC\lab3\CAJEROAUTO\CAJERO.X\CAJERO.asm
                     LIN4   0x000038    program     static D:\MICROC\lab3\CAJEROAUTO\CAJERO.X\CAJERO.asm
                     LIN5   0x000044    program     static D:\MICROC\lab3\CAJEROAUTO\CAJERO.X\CAJERO.asm
                     LIN6   0x000055    program     static D:\MICROC\lab3\CAJEROAUTO\CAJERO.X\CAJERO.asm
                     LIN7   0x000066    program     static D:\MICROC\lab3\CAJEROAUTO\CAJERO.X\CAJERO.asm
                     LIN8   0x000077    program     static D:\MICROC\lab3\CAJEROAUTO\CAJERO.X\CAJERO.asm
                     LIN9   0x000088    program     static D:\MICROC\lab3\CAJEROAUTO\CAJERO.X\CAJERO.asm
                    LIN10   0x000099    program     static D:\MICROC\lab3\CAJEROAUTO\CAJERO.X\CAJERO.asm
                    LIN11   0x0000aa    program     static D:\MICROC\lab3\CAJEROAUTO\CAJERO.X\CAJERO.asm
                    LIN12   0x0000bb    program     static D:\MICROC\lab3\CAJEROAUTO\CAJERO.X\CAJERO.asm
                    LIN13   0x0000cc    program     static D:\MICROC\lab3\CAJEROAUTO\CAJERO.X\CAJERO.asm
                    LIN14   0x0000dd    program     static D:\MICROC\lab3\CAJEROAUTO\CAJERO.X\CAJERO.asm
                    LIN15   0x0000ee    program     static D:\MICROC\lab3\CAJEROAUTO\CAJERO.X\CAJERO.asm
                    START   0x0000ff    program     static D:\MICROC\lab3\CAJEROAUTO\CAJERO.X\CAJERO.asm
                   INICIO   0x000100    program     static D:\MICROC\lab3\CAJEROAUTO\CAJERO.X\CAJERO.asm
                     LOOP   0x000104    program     static D:\MICROC\lab3\CAJEROAUTO\CAJERO.X\CAJERO.asm
             _.org_1_010F   0x00010f    program     static D:\MICROC\lab3\CAJEROAUTO\CAJERO.X\CAJERO.asm
             INTERRUPCION   0x000111    program     static D:\MICROC\lab3\CAJEROAUTO\CAJERO.X\CAJERO.asm
                       UN   0x00011c    program     static D:\MICROC\lab3\CAJEROAUTO\CAJERO.X\CAJERO.asm
                     PUSH   0x000121    program     static D:\MICROC\lab3\CAJEROAUTO\CAJERO.X\CAJERO.asm
                      POP   0x000125    program     static D:\MICROC\lab3\CAJEROAUTO\CAJERO.X\CAJERO.asm
                  TECLADO   0x000129    program     static D:\MICROC\lab3\CAJEROAUTO\CAJERO.X\CAJERO.asm
             _.org_1_012C   0x00012c    program     static D:\MICROC\lab3\CAJEROAUTO\CAJERO.X\CAJERO.asm
             _.org_1_0131   0x000131    program     static D:\MICROC\lab3\CAJEROAUTO\CAJERO.X\CAJERO.asm
             _.org_1_0136   0x000136    program     static D:\MICROC\lab3\CAJEROAUTO\CAJERO.X\CAJERO.asm
             _.org_1_013B   0x00013b    program     static D:\MICROC\lab3\CAJEROAUTO\CAJERO.X\CAJERO.asm
             _.org_1_0142   0x000142    program     static D:\MICROC\lab3\CAJEROAUTO\CAJERO.X\CAJERO.asm
             _.org_1_0147   0x000147    program     static D:\MICROC\lab3\CAJEROAUTO\CAJERO.X\CAJERO.asm
             _.org_1_014C   0x00014c    program     static D:\MICROC\lab3\CAJEROAUTO\CAJERO.X\CAJERO.asm
             _.org_1_0151   0x000151    program     static D:\MICROC\lab3\CAJEROAUTO\CAJERO.X\CAJERO.asm
             _.org_1_0158   0x000158    program     static D:\MICROC\lab3\CAJEROAUTO\CAJERO.X\CAJERO.asm
             _.org_1_015D   0x00015d    program     static D:\MICROC\lab3\CAJEROAUTO\CAJERO.X\CAJERO.asm
             _.org_1_0162   0x000162    program     static D:\MICROC\lab3\CAJEROAUTO\CAJERO.X\CAJERO.asm
             _.org_1_0167   0x000167    program     static D:\MICROC\lab3\CAJEROAUTO\CAJERO.X\CAJERO.asm
             _.org_1_016E   0x00016e    program     static D:\MICROC\lab3\CAJEROAUTO\CAJERO.X\CAJERO.asm
             _.org_1_0173   0x000173    program     static D:\MICROC\lab3\CAJEROAUTO\CAJERO.X\CAJERO.asm
             _.org_1_0178   0x000178    program     static D:\MICROC\lab3\CAJEROAUTO\CAJERO.X\CAJERO.asm
             _.org_1_017D   0x00017d    program     static D:\MICROC\lab3\CAJEROAUTO\CAJERO.X\CAJERO.asm
            CONFIGURACION   0x000181    program     static D:\MICROC\lab3\CAJEROAUTO\CAJERO.X\CONFIGURACION.inc
                  INI_LCD   0x0001a9    program     static D:\MICROC\lab3\CAJEROAUTO\CAJERO.X\INI_LCD.inc
                  COMAND8   0x0001b8    program     static D:\MICROC\lab3\CAJEROAUTO\CAJERO.X\INI_LCD.inc
             _.org_1_01B9   0x0001b9    program     static D:\MICROC\lab3\CAJEROAUTO\CAJERO.X\INI_LCD.inc
                    DATO8   0x0001ba    program     static D:\MICROC\lab3\CAJEROAUTO\CAJERO.X\INI_LCD.inc
              BIENVENIDOS   0x0001c2    program     static D:\MICROC\lab3\CAJEROAUTO\CAJERO.X\BIENVENIDOS.inc
                   LINEA1   0x0001c6    program     static D:\MICROC\lab3\CAJEROAUTO\CAJERO.X\BIENVENIDOS.inc
                    CLAVE   0x0001ce    program     static D:\MICROC\lab3\CAJEROAUTO\CAJERO.X\CLAVE.inc
                   LINEA2   0x0001d2    program     static D:\MICROC\lab3\CAJEROAUTO\CAJERO.X\CLAVE.inc
                   LINEA3   0x0001df    program     static D:\MICROC\lab3\CAJEROAUTO\CAJERO.X\CLAVE.inc
                    BOR_1   0x0001f0    program     static D:\MICROC\lab3\CAJEROAUTO\CAJERO.X\CLAVE.inc
                     REP1   0x0001f2    program     static D:\MICROC\lab3\CAJEROAUTO\CAJERO.X\CLAVE.inc
                    BOR_2   0x0001ff    program     static D:\MICROC\lab3\CAJEROAUTO\CAJERO.X\CLAVE.inc
                     REP2   0x000201    program     static D:\MICROC\lab3\CAJEROAUTO\CAJERO.X\CLAVE.inc
                   TECLA2   0x000211    program     static D:\MICROC\lab3\CAJEROAUTO\CAJERO.X\CLAVE.inc
                    BOR_3   0x00021a    program     static D:\MICROC\lab3\CAJEROAUTO\CAJERO.X\CLAVE.inc
                     REP3   0x00021c    program     static D:\MICROC\lab3\CAJEROAUTO\CAJERO.X\CLAVE.inc
                  TECLA_3   0x00022c    program     static D:\MICROC\lab3\CAJEROAUTO\CAJERO.X\CLAVE.inc
                    BOR_4   0x000235    program     static D:\MICROC\lab3\CAJEROAUTO\CAJERO.X\CLAVE.inc
                     REP4   0x000237    program     static D:\MICROC\lab3\CAJEROAUTO\CAJERO.X\CLAVE.inc
                  TECLA_4   0x000247    program     static D:\MICROC\lab3\CAJEROAUTO\CAJERO.X\CLAVE.inc
                    BOR_5   0x000250    program     static D:\MICROC\lab3\CAJEROAUTO\CAJERO.X\CLAVE.inc
                     REP5   0x000252    program     static D:\MICROC\lab3\CAJEROAUTO\CAJERO.X\CLAVE.inc
                   SALIRA   0x000262    program     static D:\MICROC\lab3\CAJEROAUTO\CAJERO.X\CLAVE.inc
            REVISAR_CLAVE   0x00026b    program     static D:\MICROC\lab3\CAJEROAUTO\CAJERO.X\REVISAR_CLAVE.inc
                  DIGITO0   0x00026d    program     static D:\MICROC\lab3\CAJEROAUTO\CAJERO.X\REVISAR_CLAVE.inc
                  DIGITO1   0x000271    program     static D:\MICROC\lab3\CAJEROAUTO\CAJERO.X\REVISAR_CLAVE.inc
                  DIGITO2   0x000275    program     static D:\MICROC\lab3\CAJEROAUTO\CAJERO.X\REVISAR_CLAVE.inc
                  DIGITO3   0x000279    program     static D:\MICROC\lab3\CAJEROAUTO\CAJERO.X\REVISAR_CLAVE.inc
                   LINEA5   0x000281    program     static D:\MICROC\lab3\CAJEROAUTO\CAJERO.X\REVISAR_CLAVE.inc
                      MAL   0x00028a    program     static D:\MICROC\lab3\CAJEROAUTO\CAJERO.X\REVISAR_CLAVE.inc
                  LINEAS5   0x000295    program     static D:\MICROC\lab3\CAJEROAUTO\CAJERO.X\REVISAR_CLAVE.inc
                   LINEA6   0x0002aa    program     static D:\MICROC\lab3\CAJEROAUTO\CAJERO.X\REVISAR_CLAVE.inc
                     REPE   0x0002b3    program     static D:\MICROC\lab3\CAJEROAUTO\CAJERO.X\REVISAR_CLAVE.inc
                  BLOQUEO   0x0002b9    program     static D:\MICROC\lab3\CAJEROAUTO\CAJERO.X\REVISAR_CLAVE.inc
                   LINEA7   0x0002bd    program     static D:\MICROC\lab3\CAJEROAUTO\CAJERO.X\REVISAR_CLAVE.inc
             _.org_1_02CA   0x0002ca    program     static D:\MICROC\lab3\CAJEROAUTO\CAJERO.X\REVISAR_CLAVE.inc
                   OPCION   0x0002cc    program     static D:\MICROC\lab3\CAJEROAUTO\CAJERO.X\OPCION.inc
                   VUELVE   0x0002cc    program     static D:\MICROC\lab3\CAJEROAUTO\CAJERO.X\OPCION.inc
                   LINEA8   0x0002d0    program     static D:\MICROC\lab3\CAJEROAUTO\CAJERO.X\OPCION.inc
                   LINEA9   0x0002dd    program     static D:\MICROC\lab3\CAJEROAUTO\CAJERO.X\OPCION.inc
                       AA   0x0002e8    program     static D:\MICROC\lab3\CAJEROAUTO\CAJERO.X\OPCION.inc
             _.org_1_02ED   0x0002ed    program     static D:\MICROC\lab3\CAJEROAUTO\CAJERO.X\OPCION.inc
                      XXX   0x0002f8    program     static D:\MICROC\lab3\CAJEROAUTO\CAJERO.X\OPCION.inc
             _.org_1_02FD   0x0002fd    program     static D:\MICROC\lab3\CAJEROAUTO\CAJERO.X\OPCION.inc
             _.org_1_0311   0x000311    program     static D:\MICROC\lab3\CAJEROAUTO\CAJERO.X\OPCION.inc
             _.org_1_0316   0x000316    program     static D:\MICROC\lab3\CAJEROAUTO\CAJERO.X\OPCION.inc
            CAMBIAR_CLAVE   0x00031d    program     static D:\MICROC\lab3\CAJEROAUTO\CAJERO.X\CAMBIAR_CLAVE.inc
                  LINEA11   0x000321    program     static D:\MICROC\lab3\CAJEROAUTO\CAJERO.X\CAMBIAR_CLAVE.inc
                  LINEA12   0x00032e    program     static D:\MICROC\lab3\CAJEROAUTO\CAJERO.X\CAMBIAR_CLAVE.inc
                   BOR_1C   0x000338    program     static D:\MICROC\lab3\CAJEROAUTO\CAJERO.X\CAMBIAR_CLAVE.inc
                    REP1C   0x00033a    program     static D:\MICROC\lab3\CAJEROAUTO\CAJERO.X\CAMBIAR_CLAVE.inc
                   BOR_2C   0x000347    program     static D:\MICROC\lab3\CAJEROAUTO\CAJERO.X\CAMBIAR_CLAVE.inc
                    REP2C   0x000349    program     static D:\MICROC\lab3\CAJEROAUTO\CAJERO.X\CAMBIAR_CLAVE.inc
                  TECLA2C   0x000359    program     static D:\MICROC\lab3\CAJEROAUTO\CAJERO.X\CAMBIAR_CLAVE.inc
                   BOR_3C   0x000362    program     static D:\MICROC\lab3\CAJEROAUTO\CAJERO.X\CAMBIAR_CLAVE.inc
                    REP3C   0x000364    program     static D:\MICROC\lab3\CAJEROAUTO\CAJERO.X\CAMBIAR_CLAVE.inc
                 TECLA_3C   0x000374    program     static D:\MICROC\lab3\CAJEROAUTO\CAJERO.X\CAMBIAR_CLAVE.inc
                   BOR_4C   0x00037d    program     static D:\MICROC\lab3\CAJEROAUTO\CAJERO.X\CAMBIAR_CLAVE.inc
                    REP4C   0x00037f    program     static D:\MICROC\lab3\CAJEROAUTO\CAJERO.X\CAMBIAR_CLAVE.inc
                 TECLA_4C   0x00038f    program     static D:\MICROC\lab3\CAJEROAUTO\CAJERO.X\CAMBIAR_CLAVE.inc
                   BOR_5C   0x000398    program     static D:\MICROC\lab3\CAJEROAUTO\CAJERO.X\CAMBIAR_CLAVE.inc
                    REP5C   0x00039a    program     static D:\MICROC\lab3\CAJEROAUTO\CAJERO.X\CAMBIAR_CLAVE.inc
                  SALIRAC   0x0003aa    program     static D:\MICROC\lab3\CAJEROAUTO\CAJERO.X\CAMBIAR_CLAVE.inc
                  LINEA13   0x0003b2    program     static D:\MICROC\lab3\CAJEROAUTO\CAJERO.X\CAMBIAR_CLAVE.inc
                       PP   0x0003ba    program     static D:\MICROC\lab3\CAJEROAUTO\CAJERO.X\CAMBIAR_CLAVE.inc
                       ZZ   0x0003bc    program     static D:\MICROC\lab3\CAJEROAUTO\CAJERO.X\CAMBIAR_CLAVE.inc
                   RETIRO   0x0003cd    program     static D:\MICROC\lab3\CAJEROAUTO\CAJERO.X\RETIRO.inc
                  LINEA14   0x0003d1    program     static D:\MICROC\lab3\CAJEROAUTO\CAJERO.X\RETIRO.inc
                  LINEA15   0x0003de    program     static D:\MICROC\lab3\CAJEROAUTO\CAJERO.X\RETIRO.inc
                       AS   0x0003e8    program     static D:\MICROC\lab3\CAJEROAUTO\CAJERO.X\RETIRO.inc
             _.org_1_03ED   0x0003ed    program     static D:\MICROC\lab3\CAJEROAUTO\CAJERO.X\RETIRO.inc
                      FAB   0x0003f8    program     static D:\MICROC\lab3\CAJEROAUTO\CAJERO.X\RETIRO.inc
             _.org_1_03FD   0x0003fd    program     static D:\MICROC\lab3\CAJEROAUTO\CAJERO.X\RETIRO.inc
             _.org_1_0411   0x000411    program     static D:\MICROC\lab3\CAJEROAUTO\CAJERO.X\RETIRO.inc
             _.org_1_0416   0x000416    program     static D:\MICROC\lab3\CAJEROAUTO\CAJERO.X\RETIRO.inc
             _.org_1_041B   0x00041b    program     static D:\MICROC\lab3\CAJEROAUTO\CAJERO.X\RETIRO.inc
                 CINCOMIL   0x000422    program     static D:\MICROC\lab3\CAJEROAUTO\CAJERO.X\RETIRO.inc
                  DIEZMIL   0x000428    program     static D:\MICROC\lab3\CAJEROAUTO\CAJERO.X\RETIRO.inc
                QUINCEMIL   0x000431    program     static D:\MICROC\lab3\CAJEROAUTO\CAJERO.X\RETIRO.inc
                VEINTEMIL   0x00043a    program     static D:\MICROC\lab3\CAJEROAUTO\CAJERO.X\RETIRO.inc
                   TRANSA   0x000443    program     static D:\MICROC\lab3\CAJEROAUTO\CAJERO.X\RETIRO.inc
                 LINEA13S   0x000447    program     static D:\MICROC\lab3\CAJEROAUTO\CAJERO.X\RETIRO.inc
                      PPP   0x00044f    program     static D:\MICROC\lab3\CAJEROAUTO\CAJERO.X\RETIRO.inc
                      ZZZ   0x000451    program     static D:\MICROC\lab3\CAJEROAUTO\CAJERO.X\RETIRO.inc
                 SINSALDO   0x00045e    program     static D:\MICROC\lab3\CAJEROAUTO\CAJERO.X\RETIRO.inc
                     PPPP   0x00049c    program     static D:\MICROC\lab3\CAJEROAUTO\CAJERO.X\RETIRO.inc
                     ZZZZ   0x00049e    program     static D:\MICROC\lab3\CAJEROAUTO\CAJERO.X\RETIRO.inc
            CONVERSOR_BCD   0x0004ab    program     static D:\MICROC\lab3\CAJEROAUTO\CAJERO.X\SALDO.inc
                    SALDO   0x0004ab    program     static D:\MICROC\lab3\CAJEROAUTO\CAJERO.X\SALDO.inc
                BCD_ALTO1   0x0004b0    program     static D:\MICROC\lab3\CAJEROAUTO\CAJERO.X\SALDO.inc
               SUMA_CIEN1   0x0004b7    program     static D:\MICROC\lab3\CAJEROAUTO\CAJERO.X\SALDO.inc
                BCD_BAJO1   0x0004bb    program     static D:\MICROC\lab3\CAJEROAUTO\CAJERO.X\SALDO.inc
               SUMA_DIEZ1   0x0004c2    program     static D:\MICROC\lab3\CAJEROAUTO\CAJERO.X\SALDO.inc
             _.org_1_04C8   0x0004c8    program     static D:\MICROC\lab3\CAJEROAUTO\CAJERO.X\SALDO.inc
             _.org_1_04CD   0x0004cd    program     static D:\MICROC\lab3\CAJEROAUTO\CAJERO.X\SALDO.inc
        MENSAJES_CENTENAS   0x0004d4    program     static D:\MICROC\lab3\CAJEROAUTO\CAJERO.X\SALDO.inc
       SALDO_INSUFICIENTE   0x000506    program     static D:\MICROC\lab3\CAJEROAUTO\CAJERO.X\SALDO.inc
                       HH   0x000528    program     static D:\MICROC\lab3\CAJEROAUTO\CAJERO.X\SALDO.inc
                       JJ   0x00052a    program     static D:\MICROC\lab3\CAJEROAUTO\CAJERO.X\SALDO.inc
         Retardo_10micros   0x00053b    program     static D:\MICROC\lab3\CAJEROAUTO\CAJERO.X\Retardos.inc
          Retardo_5micros   0x000540    program     static D:\MICROC\lab3\CAJEROAUTO\CAJERO.X\Retardos.inc
          Retardo_4micros   0x000541    program     static D:\MICROC\lab3\CAJEROAUTO\CAJERO.X\Retardos.inc
        Retardo_500micros   0x000542    program     static D:\MICROC\lab3\CAJEROAUTO\CAJERO.X\Retardos.inc
        Retardo_200micros   0x000545    program     static D:\MICROC\lab3\CAJEROAUTO\CAJERO.X\Retardos.inc
        Retardo_100micros   0x000548    program     static D:\MICROC\lab3\CAJEROAUTO\CAJERO.X\Retardos.inc
         Retardo_50micros   0x00054a    program     static D:\MICROC\lab3\CAJEROAUTO\CAJERO.X\Retardos.inc
         Retardo_20micros   0x00054d    program     static D:\MICROC\lab3\CAJEROAUTO\CAJERO.X\Retardos.inc
            RetardoMicros   0x00054e    program     static D:\MICROC\lab3\CAJEROAUTO\CAJERO.X\Retardos.inc
            Rmicros_Bucle   0x00054f    program     static D:\MICROC\lab3\CAJEROAUTO\CAJERO.X\Retardos.inc
            Retardo_200ms   0x000552    program     static D:\MICROC\lab3\CAJEROAUTO\CAJERO.X\Retardos.inc
            Retardo_100ms   0x000554    program     static D:\MICROC\lab3\CAJEROAUTO\CAJERO.X\Retardos.inc
             Retardo_50ms   0x000556    program     static D:\MICROC\lab3\CAJEROAUTO\CAJERO.X\Retardos.inc
             Retardo_20ms   0x000558    program     static D:\MICROC\lab3\CAJEROAUTO\CAJERO.X\Retardos.inc
             Retardo_10ms   0x00055a    program     static D:\MICROC\lab3\CAJEROAUTO\CAJERO.X\Retardos.inc
              Retardo_5ms   0x00055c    program     static D:\MICROC\lab3\CAJEROAUTO\CAJERO.X\Retardos.inc
              Retardo_2ms   0x00055e    program     static D:\MICROC\lab3\CAJEROAUTO\CAJERO.X\Retardos.inc
              Retardo_1ms   0x000560    program     static D:\MICROC\lab3\CAJEROAUTO\CAJERO.X\Retardos.inc
              Retardos_ms   0x000561    program     static D:\MICROC\lab3\CAJEROAUTO\CAJERO.X\Retardos.inc
        R1ms_BucleExterno   0x000562    program     static D:\MICROC\lab3\CAJEROAUTO\CAJERO.X\Retardos.inc
        R1ms_BucleInterno   0x000564    program     static D:\MICROC\lab3\CAJEROAUTO\CAJERO.X\Retardos.inc
              Retardo_20s   0x00056a    program     static D:\MICROC\lab3\CAJEROAUTO\CAJERO.X\Retardos.inc
              Retardo_10s   0x00056c    program     static D:\MICROC\lab3\CAJEROAUTO\CAJERO.X\Retardos.inc
               Retardo_5s   0x00056e    program     static D:\MICROC\lab3\CAJEROAUTO\CAJERO.X\Retardos.inc
               Retardo_2s   0x000570    program     static D:\MICROC\lab3\CAJEROAUTO\CAJERO.X\Retardos.inc
               Retardo_1s   0x000572    program     static D:\MICROC\lab3\CAJEROAUTO\CAJERO.X\Retardos.inc
            Retardo_500ms   0x000574    program     static D:\MICROC\lab3\CAJEROAUTO\CAJERO.X\Retardos.inc
          Retardo_1Decima   0x000575    program     static D:\MICROC\lab3\CAJEROAUTO\CAJERO.X\Retardos.inc
   R1Decima_BucleExterno2   0x000576    program     static D:\MICROC\lab3\CAJEROAUTO\CAJERO.X\Retardos.inc
    R1Decima_BucleExterno   0x000578    program     static D:\MICROC\lab3\CAJEROAUTO\CAJERO.X\Retardos.inc
    R1Decima_BucleInterno   0x00057a    program     static D:\MICROC\lab3\CAJEROAUTO\CAJERO.X\Retardos.inc
                 RET_10MS   0x000582    program     static D:\MICROC\lab3\CAJEROAUTO\CAJERO.X\Retardos.inc
                   LOOP11   0x000584    program     static D:\MICROC\lab3\CAJEROAUTO\CAJERO.X\Retardos.inc
                   LOOP22   0x000586    program     static D:\MICROC\lab3\CAJEROAUTO\CAJERO.X\Retardos.inc
                   LOOP33   0x000588    program     static D:\MICROC\lab3\CAJEROAUTO\CAJERO.X\Retardos.inc
                  RETARDO   0x00058f    program     static D:\MICROC\lab3\CAJEROAUTO\CAJERO.X\Retardos.inc
                     TRES   0x000591    program     static D:\MICROC\lab3\CAJEROAUTO\CAJERO.X\Retardos.inc
                      DOS   0x000593    program     static D:\MICROC\lab3\CAJEROAUTO\CAJERO.X\Retardos.inc
                      UNO   0x000595    program     static D:\MICROC\lab3\CAJEROAUTO\CAJERO.X\Retardos.inc


